; Function Attrs: mustprogress uwtable
define void @_ZN6marisa6Keyset9push_backERKNS_3KeyE(ptr nocapture noundef nonnull align 8 dereferenceable(104) %0, ptr nocapture noundef nonnull readonly align 8 dereferenceable(16) %1) local_unnamed_addr #2 align 2 {
  %3 = getelementptr inbounds i8, ptr %1, i64 8
  %4 = load i32, ptr %3, align 8
  %5 = zext i32 %4 to i64
  %6 = getelementptr inbounds i8, ptr %0, i64 88
  %7 = load i64, ptr %6, align 8
  %8 = lshr i64 %7, 8
  %9 = getelementptr inbounds i8, ptr %0, i64 56
  %10 = load i64, ptr %9, align 8
  %11 = icmp eq i64 %8, %10
  br i1 %11, label %12, label %13

12:                                               ; preds = %2
  tail call void @_ZN6marisa6Keyset16append_key_blockEv(ptr noundef nonnull align 8 dereferenceable(104) %0)
  br label %13

13:                                               ; preds = %12, %2
  %14 = icmp ugt i32 %4, 1024
  br i1 %14, label %15, label %23

15:                                               ; preds = %13
  tail call void @_ZN6marisa6Keyset18append_extra_blockEm(ptr noundef nonnull align 8 dereferenceable(104) %0, i64 noundef %5)
  %16 = getelementptr inbounds i8, ptr %0, i64 24
  %17 = getelementptr inbounds i8, ptr %0, i64 32
  %18 = load i64, ptr %17, align 8
  %19 = load ptr, ptr %16, align 8
  %20 = getelementptr %"class.marisa::scoped_array.2", ptr %19, i64 %18
  %21 = getelementptr i8, ptr %20, i64 -8
  %22 = load ptr, ptr %21, align 8
  br label %_ZN6marisa6Keyset7reserveEm.exit

23:                                               ; preds = %13
  %24 = getelementptr inbounds i8, ptr %0, i64 80
  %25 = load i64, ptr %24, align 8
  %26 = icmp ult i64 %25, %5
  br i1 %26, label %27, label %28

27:                                               ; preds = %23
  tail call void @_ZN6marisa6Keyset17append_base_blockEv(ptr noundef nonnull align 8 dereferenceable(104) %0)
  %.pre.i = load i64, ptr %24, align 8
  br label %28

28:                                               ; preds = %27, %23
  %29 = phi i64 [ %.pre.i, %27 ], [ %25, %23 ]
  %30 = getelementptr inbounds i8, ptr %0, i64 72
  %31 = load ptr, ptr %30, align 8
  %32 = getelementptr inbounds i8, ptr %31, i64 %5
  store ptr %32, ptr %30, align 8
  %33 = sub i64 %29, %5
  store i64 %33, ptr %24, align 8
  br label %_ZN6marisa6Keyset7reserveEm.exit

_ZN6marisa6Keyset7reserveEm.exit:                 ; preds = %15, %28
  %.0.i = phi ptr [ %22, %15 ], [ %31, %28 ]
  %34 = load i32, ptr %3, align 8
  %.not = icmp eq i32 %34, 0
  br i1 %.not, label %._crit_edge, label %.lr.ph

.lr.ph:                                           ; preds = %_ZN6marisa6Keyset7reserveEm.exit, %.lr.ph
  %.014 = phi i64 [ %39, %.lr.ph ], [ 0, %_ZN6marisa6Keyset7reserveEm.exit ]
  %35 = load ptr, ptr %1, align 8
  %36 = getelementptr inbounds i8, ptr %35, i64 %.014
  %37 = load i8, ptr %36, align 1
  %38 = getelementptr inbounds i8, ptr %.0.i, i64 %.014
  store i8 %37, ptr %38, align 1
  %39 = add nuw nsw i64 %.014, 1
  %40 = load i32, ptr %3, align 8
  %41 = zext i32 %40 to i64
  %42 = icmp ult i64 %39, %41
  br i1 %42, label %.lr.ph, label %._crit_edge, !llvm.loop !4

._crit_edge:                                      ; preds = %.lr.ph, %_ZN6marisa6Keyset7reserveEm.exit
  %.lcssa = phi i32 [ 0, %_ZN6marisa6Keyset7reserveEm.exit ], [ %40, %.lr.ph ]
  %43 = getelementptr inbounds i8, ptr %0, i64 48
  %44 = load i64, ptr %6, align 8
  %45 = lshr i64 %44, 8
  %46 = load ptr, ptr %43, align 8
  %47 = getelementptr inbounds %"class.marisa::scoped_array.1", ptr %46, i64 %45
  %48 = and i64 %44, 255
  %49 = load ptr, ptr %47, align 8
  %50 = getelementptr inbounds %"class.marisa::Key", ptr %49, i64 %48
  store ptr %.0.i, ptr %50, align 8
  %51 = getelementptr inbounds i8, ptr %50, i64 8
  store i32 %.lcssa, ptr %51, align 8
  %52 = getelementptr inbounds i8, ptr %1, i64 12
  %53 = load i32, ptr %52, align 4
  %54 = getelementptr inbounds i8, ptr %50, i64 12
  store i32 %53, ptr %54, align 4
  %55 = load i64, ptr %6, align 8
  %56 = add i64 %55, 1
  store i64 %56, ptr %6, align 8
  %57 = load i32, ptr %51, align 8
  %58 = zext i32 %57 to i64
  %59 = getelementptr inbounds i8, ptr %0, i64 96
  %60 = load i64, ptr %59, align 8
  %61 = add i64 %60, %58
  store i64 %61, ptr %59, align 8
  ret void
}